target datalayout = "e-m:e-p270:32:32-p271:32:32-p272:64:64-i64:64-i128:128-f80:128-n8:16:32:64-S128"
target triple = "x86_64-pc-linux-gnu"

@rar5_signature_xor = internal global [8 x i8] c"\F3\C0\D3\80\BB\A6\A0\A1", align 1

; Function Attrs: nounwind uwtable
define internal i32 @consume(ptr noundef %0, i64 noundef %1) #0 {
  %3 = alloca ptr, align 8
  %4 = alloca i64, align 8
  %5 = alloca i32, align 4
  store ptr %0, ptr %3, align 8, !tbaa !13
  store i64 %1, ptr %4, align 8, !tbaa !42
  call void @llvm.lifetime.start.p0(i64 4, ptr %5) #11
  %6 = load i64, ptr %4, align 8, !tbaa !42
  %7 = load ptr, ptr %3, align 8, !tbaa !13
  %8 = load i64, ptr %4, align 8, !tbaa !42
  %9 = call i64 @__archive_read_consume(ptr noundef %7, i64 noundef %8)
  %10 = icmp eq i64 %6, %9
  %11 = select i1 %10, i32 0, i32 -30
  store i32 %11, ptr %5, align 4, !tbaa !9
  %12 = load i32, ptr %5, align 4, !tbaa !9
  call void @llvm.lifetime.end.p0(i64 4, ptr %5) #11
  ret i32 %12
}

; Function Attrs: nounwind uwtable
define internal i32 @read_ahead(ptr noundef %0, i64 noundef %1, ptr noundef %2) #0 {
  %4 = alloca i32, align 4
  %5 = alloca ptr, align 8
  %6 = alloca i64, align 8
  %7 = alloca ptr, align 8
  %8 = alloca i64, align 8
  %9 = alloca i32, align 4
  store ptr %0, ptr %5, align 8, !tbaa !13
  store i64 %1, ptr %6, align 8, !tbaa !42
  store ptr %2, ptr %7, align 8, !tbaa !79
  call void @llvm.lifetime.start.p0(i64 8, ptr %8) #11
  store i64 -1, ptr %8, align 8, !tbaa !42
  %10 = load ptr, ptr %7, align 8, !tbaa !79
  %11 = icmp ne ptr %10, null
  br i1 %11, label %13, label %12

12:                                               ; preds = %3
  store i32 0, ptr %4, align 4
  store i32 1, ptr %9, align 4
  br label %23

13:                                               ; preds = %3
  %14 = load ptr, ptr %5, align 8, !tbaa !13
  %15 = load i64, ptr %6, align 8, !tbaa !42
  %16 = call ptr @__archive_read_ahead(ptr noundef %14, i64 noundef %15, ptr noundef %8)
  %17 = load ptr, ptr %7, align 8, !tbaa !79
  store ptr %16, ptr %17, align 8, !tbaa !33
  %18 = load ptr, ptr %7, align 8, !tbaa !79
  %19 = load ptr, ptr %18, align 8, !tbaa !33
  %20 = icmp eq ptr %19, null
  br i1 %20, label %21, label %22

21:                                               ; preds = %13
  store i32 0, ptr %4, align 4
  store i32 1, ptr %9, align 4
  br label %23

22:                                               ; preds = %13
  store i32 1, ptr %4, align 4
  store i32 1, ptr %9, align 4
  br label %23

23:                                               ; preds = %22, %21, %12
  call void @llvm.lifetime.end.p0(i64 8, ptr %8) #11
  %24 = load i32, ptr %4, align 4
  ret i32 %24
}

; Function Attrs: nounwind uwtable
define internal void @rar5_signature(ptr noundef %0) #0 {
  %2 = alloca ptr, align 8
  %3 = alloca i64, align 8
  store ptr %0, ptr %2, align 8, !tbaa !33
  call void @llvm.lifetime.start.p0(i64 8, ptr %3) #11
  store i64 0, ptr %3, align 8, !tbaa !42
  br label %4

4:                                                ; preds = %17, %1
  %5 = load i64, ptr %3, align 8, !tbaa !42
  %6 = icmp ult i64 %5, 8
  br i1 %6, label %7, label %20

7:                                                ; preds = %4
  %8 = load i64, ptr %3, align 8, !tbaa !42
  %9 = getelementptr inbounds nuw [8 x i8], ptr @rar5_signature_xor, i64 0, i64 %8
  %10 = load i8, ptr %9, align 1, !tbaa !75
  %11 = zext i8 %10 to i32
  %12 = xor i32 %11, 161
  %13 = trunc i32 %12 to i8
  %14 = load ptr, ptr %2, align 8, !tbaa !33
  %15 = load i64, ptr %3, align 8, !tbaa !42
  %16 = getelementptr inbounds nuw i8, ptr %14, i64 %15
  store i8 %13, ptr %16, align 1, !tbaa !75
  br label %17

17:                                               ; preds = %7
  %18 = load i64, ptr %3, align 8, !tbaa !42
  %19 = add i64 %18, 1
  store i64 %19, ptr %3, align 8, !tbaa !42
  br label %4, !llvm.loop !78

20:                                               ; preds = %4
  call void @llvm.lifetime.end.p0(i64 8, ptr %3) #11
  ret void
}

; Function Attrs: nounwind uwtable
define internal i32 @scan_for_signature(ptr noundef %0) #0 {
  %2 = alloca i32, align 4
  %3 = alloca ptr, align 8
  %4 = alloca ptr, align 8
  %5 = alloca i32, align 4
  %6 = alloca i64, align 8
  %7 = alloca [8 x i8], align 1
  %8 = alloca i32, align 4
  store ptr %0, ptr %3, align 8, !tbaa !13
  call void @llvm.lifetime.start.p0(i64 8, ptr %4) #11
  call void @llvm.lifetime.start.p0(i64 4, ptr %5) #11
  store i32 512, ptr %5, align 4, !tbaa !9
  call void @llvm.lifetime.start.p0(i64 8, ptr %6) #11
  call void @llvm.lifetime.start.p0(i64 8, ptr %7) #11
  %9 = getelementptr inbounds [8 x i8], ptr %7, i64 0, i64 0
  call void @rar5_signature(ptr noundef %9)
  br label %10

10:                                               ; preds = %36, %1
  br label %11

11:                                               ; preds = %10
  %12 = load ptr, ptr %3, align 8, !tbaa !13
  %13 = call i32 @read_ahead(ptr noundef %12, i64 noundef 512, ptr noundef %4)
  %14 = icmp ne i32 %13, 0
  br i1 %14, label %16, label %15

15:                                               ; preds = %11
  store i32 1, ptr %2, align 4
  store i32 1, ptr %8, align 4
  br label %39

16:                                               ; preds = %11
  store i64 0, ptr %6, align 8, !tbaa !42
  br label %17

17:                                               ; preds = %33, %16
  %18 = load i64, ptr %6, align 8, !tbaa !42
  %19 = icmp slt i64 %18, 504
  br i1 %19, label %20, label %36

20:                                               ; preds = %17
  %21 = load ptr, ptr %4, align 8, !tbaa !33
  %22 = load i64, ptr %6, align 8, !tbaa !42
  %23 = getelementptr inbounds i8, ptr %21, i64 %22
  %24 = getelementptr inbounds [8 x i8], ptr %7, i64 0, i64 0
  %25 = call i32 @memcmp(ptr noundef %23, ptr noundef %24, i64 noundef 8) #13
  %26 = icmp eq i32 %25, 0
  br i1 %26, label %27, label %32

27:                                               ; preds = %20
  %28 = load ptr, ptr %3, align 8, !tbaa !13
  %29 = load i64, ptr %6, align 8, !tbaa !42
  %30 = add i64 %29, 8
  %31 = call i32 @consume(ptr noundef %28, i64 noundef %30)
  store i32 0, ptr %2, align 4
  store i32 1, ptr %8, align 4
  br label %39

32:                                               ; preds = %20
  br label %33

33:                                               ; preds = %32
  %34 = load i64, ptr %6, align 8, !tbaa !42
  %35 = add nsw i64 %34, 1
  store i64 %35, ptr %6, align 8, !tbaa !42
  br label %17, !llvm.loop !98

36:                                               ; preds = %17
  %37 = load ptr, ptr %3, align 8, !tbaa !13
  %38 = call i32 @consume(ptr noundef %37, i64 noundef 512)
  br label %10

39:                                               ; preds = %27, %15
  call void @llvm.lifetime.end.p0(i64 8, ptr %7) #11
  call void @llvm.lifetime.end.p0(i64 8, ptr %6) #11
  call void @llvm.lifetime.end.p0(i64 4, ptr %5) #11
  call void @llvm.lifetime.end.p0(i64 8, ptr %4) #11
  %40 = load i32, ptr %2, align 4
  ret i32 %40
}