; Function Attrs: nounwind uwtable
define internal fastcc void @scan_for_signature(ptr noundef %0) unnamed_addr #0 {
  %2 = alloca i64, align 8
  %3 = alloca [8 x i8], align 1
  call void @llvm.lifetime.start.p0(i64 8, ptr nonnull %3) #15
  br label %4

4:                                                ; preds = %4, %1
  %.04.i = phi i64 [ 0, %1 ], [ %9, %4 ]
  %5 = getelementptr inbounds nuw [8 x i8], ptr @rar5_signature_xor, i64 0, i64 %.04.i
  %6 = load i8, ptr %5, align 1, !tbaa !26
  %7 = xor i8 %6, -95
  %8 = getelementptr inbounds nuw i8, ptr %3, i64 %.04.i
  store i8 %7, ptr %8, align 1, !tbaa !26
  %9 = add nuw nsw i64 %.04.i, 1
  %exitcond.not.i = icmp eq i64 %9, 8
  br i1 %exitcond.not.i, label %rar5_signature.exit.preheader, label %4, !llvm.loop !27

rar5_signature.exit.preheader:                    ; preds = %4
  call void @llvm.lifetime.start.p0(i64 8, ptr nonnull %2) #15
  store i64 -1, ptr %2, align 8, !tbaa !29
  %10 = call ptr @__archive_read_ahead(ptr noundef %0, i64 noundef 512, ptr noundef nonnull %2) #15
  %.not811 = icmp eq ptr %10, null
  call void @llvm.lifetime.end.p0(i64 8, ptr nonnull %2) #15
  br i1 %.not811, label %.loopexit, label %.preheader

.preheader:                                       ; preds = %rar5_signature.exit.preheader, %rar5_signature.exit
  %11 = phi ptr [ %21, %rar5_signature.exit ], [ %10, %rar5_signature.exit.preheader ]
  br label %12

12:                                               ; preds = %.preheader, %18
  %.010 = phi i64 [ 0, %.preheader ], [ %19, %18 ]
  %13 = getelementptr inbounds nuw i8, ptr %11, i64 %.010
  %bcmp = call i32 @bcmp(ptr noundef nonnull dereferenceable(8) %13, ptr noundef nonnull dereferenceable(8) %3, i64 8)
  %14 = icmp eq i32 %bcmp, 0
  br i1 %14, label %15, label %18

15:                                               ; preds = %12
  %16 = add nuw nsw i64 %.010, 8
  %17 = call i64 @__archive_read_consume(ptr noundef %0, i64 noundef %16) #15
  br label %.loopexit

18:                                               ; preds = %12
  %19 = add nuw nsw i64 %.010, 1
  %exitcond.not = icmp eq i64 %19, 504
  br i1 %exitcond.not, label %rar5_signature.exit, label %12, !llvm.loop !91

rar5_signature.exit:                              ; preds = %18
  %20 = call i64 @__archive_read_consume(ptr noundef %0, i64 noundef 512) #15
  call void @llvm.lifetime.start.p0(i64 8, ptr nonnull %2) #15
  store i64 -1, ptr %2, align 8, !tbaa !29
  %21 = call ptr @__archive_read_ahead(ptr noundef %0, i64 noundef 512, ptr noundef nonnull %2) #15
  %.not8 = icmp eq ptr %21, null
  call void @llvm.lifetime.end.p0(i64 8, ptr nonnull %2) #15
  br i1 %.not8, label %.loopexit, label %.preheader

.loopexit:                                        ; preds = %rar5_signature.exit, %rar5_signature.exit.preheader, %15
  call void @llvm.lifetime.end.p0(i64 8, ptr nonnull %3) #15
  ret void
}